target datalayout = "e-m:e-p270:32:32-p271:32:32-p272:64:64-i64:64-i128:128-f80:128-n8:16:32:64-S128"
target triple = "x86_64-pc-linux-gnu"

%struct.TupleTableSlotOps = type { i64, ptr, ptr, ptr, ptr, ptr, ptr, ptr, ptr, ptr, ptr, ptr, ptr }
%struct.PartitionTupleRouting = type { ptr, ptr, ptr, i32, i32, ptr, ptr, i32, i32, ptr }
%struct.RelationData = type { %struct.RelFileLocator, ptr, i32, i32, i8, i8, i8, i8, i8, i32, i32, i32, i32, ptr, ptr, i32, %struct.LockInfoData, ptr, ptr, ptr, ptr, ptr, i8, ptr, ptr, ptr, ptr, ptr, ptr, i32, ptr, i8, ptr, ptr, i32, i8, i32, ptr, i8, ptr, ptr, ptr, ptr, ptr, ptr, ptr, i32, ptr, ptr, ptr, ptr, ptr, ptr, ptr, ptr, ptr, ptr, ptr, ptr, ptr, ptr, ptr, ptr, ptr, ptr, ptr, i32, i8, ptr }
%struct.RelFileLocator = type { i32, i32, i32 }
%struct.LockInfoData = type { %struct.LockRelId }
%struct.LockRelId = type { i32, i32 }
%struct.EState = type { i32, i32, ptr, ptr, ptr, i32, ptr, ptr, ptr, ptr, ptr, ptr, ptr, ptr, ptr, ptr, i32, ptr, ptr, ptr, ptr, ptr, ptr, ptr, ptr, ptr, ptr, i64, i64, i32, i32, i8, ptr, ptr, ptr, ptr, ptr, i8, i32, i32, ptr, i32, ptr, ptr, ptr, ptr }
%struct.PartitionDescData = type { i32, i8, ptr, ptr, ptr, i32, i32, i32 }
%struct.PartitionDispatchData = type { ptr, ptr, ptr, ptr, ptr, ptr, [0 x i32] }
%struct.Node = type { i32 }

@CurrentMemoryContext = external global ptr, align 8
@XactIsoLevel = external global i32, align 4
@TTSOpsVirtual = external constant %struct.TupleTableSlotOps, align 8

; Function Attrs: inlinehint nounwind uwtable
define internal ptr @newNode(i64 noundef %0, i32 noundef %1) #3 {
  %3 = alloca i64, align 8
  %4 = alloca i32, align 4
  %5 = alloca ptr, align 8
  store i64 %0, ptr %3, align 8
  store i32 %1, ptr %4, align 4
  call void @llvm.lifetime.start.p0(i64 8, ptr %5) #9
  %6 = load i64, ptr %3, align 8
  %7 = call ptr @palloc0(i64 noundef %6)
  store ptr %7, ptr %5, align 8
  %8 = load i32, ptr %4, align 4
  %9 = load ptr, ptr %5, align 8
  %10 = getelementptr inbounds nuw %struct.Node, ptr %9, i32 0, i32 0
  store i32 %8, ptr %10, align 4
  %11 = load ptr, ptr %5, align 8
  call void @llvm.lifetime.end.p0(i64 8, ptr %5) #9
  ret ptr %11
}

; Function Attrs: inlinehint nounwind uwtable
define internal ptr @MemoryContextSwitchTo(ptr noundef %0) #3 {
  %2 = alloca ptr, align 8
  %3 = alloca ptr, align 8
  store ptr %0, ptr %2, align 8
  call void @llvm.lifetime.start.p0(i64 8, ptr %3) #9
  %4 = load ptr, ptr @CurrentMemoryContext, align 8
  store ptr %4, ptr %3, align 8
  %5 = load ptr, ptr %2, align 8
  store ptr %5, ptr @CurrentMemoryContext, align 8
  %6 = load ptr, ptr %3, align 8
  call void @llvm.lifetime.end.p0(i64 8, ptr %3) #9
  ret ptr %6
}

; Function Attrs: nounwind uwtable
define internal ptr @ExecInitPartitionDispatchInfo(ptr noundef %0, ptr noundef %1, i32 noundef %2, ptr noundef %3, i32 noundef %4, ptr noundef %5) #0 {
  %7 = alloca ptr, align 8
  %8 = alloca ptr, align 8
  %9 = alloca i32, align 4
  %10 = alloca ptr, align 8
  %11 = alloca i32, align 4
  %12 = alloca ptr, align 8
  %13 = alloca ptr, align 8
  %14 = alloca ptr, align 8
  %15 = alloca ptr, align 8
  %16 = alloca i32, align 4
  %17 = alloca ptr, align 8
  %18 = alloca ptr, align 8
  %19 = alloca ptr, align 8
  store ptr %0, ptr %7, align 8
  store ptr %1, ptr %8, align 8
  store i32 %2, ptr %9, align 4
  store ptr %3, ptr %10, align 8
  store i32 %4, ptr %11, align 4
  store ptr %5, ptr %12, align 8
  call void @llvm.lifetime.start.p0(i64 8, ptr %13) #9
  call void @llvm.lifetime.start.p0(i64 8, ptr %14) #9
  call void @llvm.lifetime.start.p0(i64 8, ptr %15) #9
  call void @llvm.lifetime.start.p0(i64 4, ptr %16) #9
  call void @llvm.lifetime.start.p0(i64 8, ptr %17) #9
  %20 = load ptr, ptr %7, align 8
  %21 = getelementptr inbounds nuw %struct.EState, ptr %20, i32 0, i32 19
  %22 = load ptr, ptr %21, align 8
  %23 = icmp eq ptr %22, null
  br i1 %23, label %24, label %34

24:                                               ; preds = %6
  %25 = load ptr, ptr %7, align 8
  %26 = getelementptr inbounds nuw %struct.EState, ptr %25, i32 0, i32 25
  %27 = load ptr, ptr %26, align 8
  %28 = load i32, ptr @XactIsoLevel, align 4
  %29 = icmp sge i32 %28, 2
  %30 = xor i1 %29, true
  %31 = call ptr @CreatePartitionDirectory(ptr noundef %27, i1 noundef zeroext %30)
  %32 = load ptr, ptr %7, align 8
  %33 = getelementptr inbounds nuw %struct.EState, ptr %32, i32 0, i32 19
  store ptr %31, ptr %33, align 8
  br label %34

34:                                               ; preds = %24, %6
  %35 = load ptr, ptr %8, align 8
  %36 = getelementptr inbounds nuw %struct.PartitionTupleRouting, ptr %35, i32 0, i32 9
  %37 = load ptr, ptr %36, align 8
  %38 = call ptr @MemoryContextSwitchTo(ptr noundef %37)
  store ptr %38, ptr %17, align 8
  %39 = load i32, ptr %9, align 4
  %40 = load ptr, ptr %8, align 8
  %41 = getelementptr inbounds nuw %struct.PartitionTupleRouting, ptr %40, i32 0, i32 0
  %42 = load ptr, ptr %41, align 8
  %43 = getelementptr inbounds nuw %struct.RelationData, ptr %42, i32 0, i32 15
  %44 = load i32, ptr %43, align 8
  %45 = icmp ne i32 %39, %44
  br i1 %45, label %46, label %49

46:                                               ; preds = %34
  %47 = load i32, ptr %9, align 4
  %48 = call ptr @table_open(i32 noundef %47, i32 noundef 3)
  store ptr %48, ptr %13, align 8
  br label %53

49:                                               ; preds = %34
  %50 = load ptr, ptr %8, align 8
  %51 = getelementptr inbounds nuw %struct.PartitionTupleRouting, ptr %50, i32 0, i32 0
  %52 = load ptr, ptr %51, align 8
  store ptr %52, ptr %13, align 8
  br label %53

53:                                               ; preds = %49, %46
  %54 = load ptr, ptr %7, align 8
  %55 = getelementptr inbounds nuw %struct.EState, ptr %54, i32 0, i32 19
  %56 = load ptr, ptr %55, align 8
  %57 = load ptr, ptr %13, align 8
  %58 = call ptr @PartitionDirectoryLookup(ptr noundef %56, ptr noundef %57)
  store ptr %58, ptr %14, align 8
  %59 = load ptr, ptr %14, align 8
  %60 = getelementptr inbounds nuw %struct.PartitionDescData, ptr %59, i32 0, i32 0
  %61 = load i32, ptr %60, align 8
  %62 = sext i32 %61 to i64
  %63 = mul i64 %62, 4
  %64 = add i64 48, %63
  %65 = call ptr @palloc(i64 noundef %64)
  store ptr %65, ptr %15, align 8
  %66 = load ptr, ptr %13, align 8
  %67 = load ptr, ptr %15, align 8
  %68 = getelementptr inbounds nuw %struct.PartitionDispatchData, ptr %67, i32 0, i32 0
  store ptr %66, ptr %68, align 8
  %69 = load ptr, ptr %13, align 8
  %70 = call ptr @RelationGetPartitionKey(ptr noundef %69)
  %71 = load ptr, ptr %15, align 8
  %72 = getelementptr inbounds nuw %struct.PartitionDispatchData, ptr %71, i32 0, i32 1
  store ptr %70, ptr %72, align 8
  %73 = load ptr, ptr %15, align 8
  %74 = getelementptr inbounds nuw %struct.PartitionDispatchData, ptr %73, i32 0, i32 2
  store ptr null, ptr %74, align 8
  %75 = load ptr, ptr %14, align 8
  %76 = load ptr, ptr %15, align 8
  %77 = getelementptr inbounds nuw %struct.PartitionDispatchData, ptr %76, i32 0, i32 3
  store ptr %75, ptr %77, align 8
  %78 = load ptr, ptr %10, align 8
  %79 = icmp ne ptr %78, null
  br i1 %79, label %80, label %105

80:                                               ; preds = %53
  call void @llvm.lifetime.start.p0(i64 8, ptr %18) #9
  %81 = load ptr, ptr %13, align 8
  %82 = getelementptr inbounds nuw %struct.RelationData, ptr %81, i32 0, i32 14
  %83 = load ptr, ptr %82, align 8
  store ptr %83, ptr %18, align 8
  %84 = load ptr, ptr %10, align 8
  %85 = getelementptr inbounds nuw %struct.PartitionDispatchData, ptr %84, i32 0, i32 0
  %86 = load ptr, ptr %85, align 8
  %87 = getelementptr inbounds nuw %struct.RelationData, ptr %86, i32 0, i32 14
  %88 = load ptr, ptr %87, align 8
  %89 = load ptr, ptr %18, align 8
  %90 = call ptr @build_attrmap_by_name_if_req(ptr noundef %88, ptr noundef %89, i1 noundef zeroext false)
  %91 = load ptr, ptr %15, align 8
  %92 = getelementptr inbounds nuw %struct.PartitionDispatchData, ptr %91, i32 0, i32 5
  store ptr %90, ptr %92, align 8
  %93 = load ptr, ptr %15, align 8
  %94 = getelementptr inbounds nuw %struct.PartitionDispatchData, ptr %93, i32 0, i32 5
  %95 = load ptr, ptr %94, align 8
  %96 = icmp ne ptr %95, null
  br i1 %96, label %97, label %100

97:                                               ; preds = %80
  %98 = load ptr, ptr %18, align 8
  %99 = call ptr @MakeSingleTupleTableSlot(ptr noundef %98, ptr noundef @TTSOpsVirtual)
  br label %101

100:                                              ; preds = %80
  br label %101

101:                                              ; preds = %100, %97
  %102 = phi ptr [ %99, %97 ], [ null, %100 ]
  %103 = load ptr, ptr %15, align 8
  %104 = getelementptr inbounds nuw %struct.PartitionDispatchData, ptr %103, i32 0, i32 4
  store ptr %102, ptr %104, align 8
  call void @llvm.lifetime.end.p0(i64 8, ptr %18) #9
  br label %110

105:                                              ; preds = %53
  %106 = load ptr, ptr %15, align 8
  %107 = getelementptr inbounds nuw %struct.PartitionDispatchData, ptr %106, i32 0, i32 5
  store ptr null, ptr %107, align 8
  %108 = load ptr, ptr %15, align 8
  %109 = getelementptr inbounds nuw %struct.PartitionDispatchData, ptr %108, i32 0, i32 4
  store ptr null, ptr %109, align 8
  br label %110

110:                                              ; preds = %105, %101
  %111 = load ptr, ptr %15, align 8
  %112 = getelementptr inbounds nuw %struct.PartitionDispatchData, ptr %111, i32 0, i32 6
  %113 = getelementptr inbounds [0 x i32], ptr %112, i64 0, i64 0
  %114 = load ptr, ptr %14, align 8
  %115 = getelementptr inbounds nuw %struct.PartitionDescData, ptr %114, i32 0, i32 0
  %116 = load i32, ptr %115, align 8
  %117 = sext i32 %116 to i64
  %118 = mul i64 4, %117
  call void @llvm.memset.p0.i64(ptr align 8 %113, i8 -1, i64 %118, i1 false)
  %119 = load ptr, ptr %8, align 8
  %120 = getelementptr inbounds nuw %struct.PartitionTupleRouting, ptr %119, i32 0, i32 3
  %121 = load i32, ptr %120, align 8
  %122 = add i32 %121, 1
  store i32 %122, ptr %120, align 8
  store i32 %121, ptr %16, align 4
  %123 = load ptr, ptr %8, align 8
  %124 = getelementptr inbounds nuw %struct.PartitionTupleRouting, ptr %123, i32 0, i32 3
  %125 = load i32, ptr %124, align 8
  %126 = load ptr, ptr %8, align 8
  %127 = getelementptr inbounds nuw %struct.PartitionTupleRouting, ptr %126, i32 0, i32 4
  %128 = load i32, ptr %127, align 4
  %129 = icmp sge i32 %125, %128
  br i1 %129, label %130, label %182

130:                                              ; preds = %110
  %131 = load ptr, ptr %8, align 8
  %132 = getelementptr inbounds nuw %struct.PartitionTupleRouting, ptr %131, i32 0, i32 4
  %133 = load i32, ptr %132, align 4
  %134 = icmp eq i32 %133, 0
  br i1 %134, label %135, label %154

135:                                              ; preds = %130
  %136 = load ptr, ptr %8, align 8
  %137 = getelementptr inbounds nuw %struct.PartitionTupleRouting, ptr %136, i32 0, i32 4
  store i32 4, ptr %137, align 4
  %138 = load ptr, ptr %8, align 8
  %139 = getelementptr inbounds nuw %struct.PartitionTupleRouting, ptr %138, i32 0, i32 4
  %140 = load i32, ptr %139, align 4
  %141 = sext i32 %140 to i64
  %142 = mul i64 8, %141
  %143 = call ptr @palloc(i64 noundef %142)
  %144 = load ptr, ptr %8, align 8
  %145 = getelementptr inbounds nuw %struct.PartitionTupleRouting, ptr %144, i32 0, i32 1
  store ptr %143, ptr %145, align 8
  %146 = load ptr, ptr %8, align 8
  %147 = getelementptr inbounds nuw %struct.PartitionTupleRouting, ptr %146, i32 0, i32 4
  %148 = load i32, ptr %147, align 4
  %149 = sext i32 %148 to i64
  %150 = mul i64 8, %149
  %151 = call ptr @palloc(i64 noundef %150)
  %152 = load ptr, ptr %8, align 8
  %153 = getelementptr inbounds nuw %struct.PartitionTupleRouting, ptr %152, i32 0, i32 2
  store ptr %151, ptr %153, align 8
  br label %181

154:                                              ; preds = %130
  %155 = load ptr, ptr %8, align 8
  %156 = getelementptr inbounds nuw %struct.PartitionTupleRouting, ptr %155, i32 0, i32 4
  %157 = load i32, ptr %156, align 4
  %158 = mul i32 %157, 2
  store i32 %158, ptr %156, align 4
  %159 = load ptr, ptr %8, align 8
  %160 = getelementptr inbounds nuw %struct.PartitionTupleRouting, ptr %159, i32 0, i32 1
  %161 = load ptr, ptr %160, align 8
  %162 = load ptr, ptr %8, align 8
  %163 = getelementptr inbounds nuw %struct.PartitionTupleRouting, ptr %162, i32 0, i32 4
  %164 = load i32, ptr %163, align 4
  %165 = sext i32 %164 to i64
  %166 = mul i64 8, %165
  %167 = call ptr @repalloc(ptr noundef %161, i64 noundef %166)
  %168 = load ptr, ptr %8, align 8
  %169 = getelementptr inbounds nuw %struct.PartitionTupleRouting, ptr %168, i32 0, i32 1
  store ptr %167, ptr %169, align 8
  %170 = load ptr, ptr %8, align 8
  %171 = getelementptr inbounds nuw %struct.PartitionTupleRouting, ptr %170, i32 0, i32 2
  %172 = load ptr, ptr %171, align 8
  %173 = load ptr, ptr %8, align 8
  %174 = getelementptr inbounds nuw %struct.PartitionTupleRouting, ptr %173, i32 0, i32 4
  %175 = load i32, ptr %174, align 4
  %176 = sext i32 %175 to i64
  %177 = mul i64 8, %176
  %178 = call ptr @repalloc(ptr noundef %172, i64 noundef %177)
  %179 = load ptr, ptr %8, align 8
  %180 = getelementptr inbounds nuw %struct.PartitionTupleRouting, ptr %179, i32 0, i32 2
  store ptr %178, ptr %180, align 8
  br label %181

181:                                              ; preds = %154, %135
  br label %182

182:                                              ; preds = %181, %110
  %183 = load ptr, ptr %15, align 8
  %184 = load ptr, ptr %8, align 8
  %185 = getelementptr inbounds nuw %struct.PartitionTupleRouting, ptr %184, i32 0, i32 1
  %186 = load ptr, ptr %185, align 8
  %187 = load i32, ptr %16, align 4
  %188 = sext i32 %187 to i64
  %189 = getelementptr inbounds ptr, ptr %186, i64 %188
  store ptr %183, ptr %189, align 8
  %190 = load ptr, ptr %10, align 8
  %191 = icmp ne ptr %190, null
  br i1 %191, label %192, label %204

192:                                              ; preds = %182
  call void @llvm.lifetime.start.p0(i64 8, ptr %19) #9
  %193 = call ptr @newNode(i64 noundef 392, i32 noundef 387)
  store ptr %193, ptr %19, align 8
  %194 = load ptr, ptr %19, align 8
  %195 = load ptr, ptr %13, align 8
  %196 = load ptr, ptr %12, align 8
  call void @InitResultRelInfo(ptr noundef %194, ptr noundef %195, i32 noundef 0, ptr noundef %196, i32 noundef 0)
  %197 = load ptr, ptr %19, align 8
  %198 = load ptr, ptr %8, align 8
  %199 = getelementptr inbounds nuw %struct.PartitionTupleRouting, ptr %198, i32 0, i32 2
  %200 = load ptr, ptr %199, align 8
  %201 = load i32, ptr %16, align 4
  %202 = sext i32 %201 to i64
  %203 = getelementptr inbounds ptr, ptr %200, i64 %202
  store ptr %197, ptr %203, align 8
  call void @llvm.lifetime.end.p0(i64 8, ptr %19) #9
  br label %211

204:                                              ; preds = %182
  %205 = load ptr, ptr %8, align 8
  %206 = getelementptr inbounds nuw %struct.PartitionTupleRouting, ptr %205, i32 0, i32 2
  %207 = load ptr, ptr %206, align 8
  %208 = load i32, ptr %16, align 4
  %209 = sext i32 %208 to i64
  %210 = getelementptr inbounds ptr, ptr %207, i64 %209
  store ptr null, ptr %210, align 8
  br label %211

211:                                              ; preds = %204, %192
  %212 = load ptr, ptr %10, align 8
  %213 = icmp ne ptr %212, null
  br i1 %213, label %214, label %221

214:                                              ; preds = %211
  %215 = load i32, ptr %16, align 4
  %216 = load ptr, ptr %10, align 8
  %217 = getelementptr inbounds nuw %struct.PartitionDispatchData, ptr %216, i32 0, i32 6
  %218 = load i32, ptr %11, align 4
  %219 = sext i32 %218 to i64
  %220 = getelementptr inbounds [0 x i32], ptr %217, i64 0, i64 %219
  store i32 %215, ptr %220, align 4
  br label %221

221:                                              ; preds = %214, %211
  %222 = load ptr, ptr %17, align 8
  %223 = call ptr @MemoryContextSwitchTo(ptr noundef %222)
  %224 = load ptr, ptr %15, align 8
  call void @llvm.lifetime.end.p0(i64 8, ptr %17) #9
  call void @llvm.lifetime.end.p0(i64 4, ptr %16) #9
  call void @llvm.lifetime.end.p0(i64 8, ptr %15) #9
  call void @llvm.lifetime.end.p0(i64 8, ptr %14) #9
  call void @llvm.lifetime.end.p0(i64 8, ptr %13) #9
  ret ptr %224
}