; Function Attrs: nounwind uwtable
define internal fastcc noundef ptr @ExecInitPartitionDispatchInfo(ptr noundef captures(none) %0, ptr noundef captures(none) %1, i32 noundef %2, ptr noundef captures(address_is_null) %3, i32 noundef range(i32 0, -2147483648) %4, ptr noundef %5) unnamed_addr #0 {
  %7 = getelementptr inbounds nuw i8, ptr %0, i64 144
  %8 = load ptr, ptr %7, align 8
  %9 = icmp eq ptr %8, null
  br i1 %9, label %10, label %16

10:                                               ; preds = %6
  %11 = getelementptr inbounds nuw i8, ptr %0, i64 192
  %12 = load ptr, ptr %11, align 8
  %13 = load i32, ptr @XactIsoLevel, align 4
  %14 = icmp slt i32 %13, 2
  %15 = tail call ptr @CreatePartitionDirectory(ptr noundef %12, i1 noundef zeroext %14) #9
  store ptr %15, ptr %7, align 8
  br label %16

16:                                               ; preds = %10, %6
  %17 = phi ptr [ %15, %10 ], [ %8, %6 ]
  %18 = getelementptr inbounds nuw i8, ptr %1, i64 56
  %19 = load ptr, ptr %18, align 8
  %20 = load ptr, ptr @CurrentMemoryContext, align 8
  store ptr %19, ptr @CurrentMemoryContext, align 8
  %21 = load ptr, ptr %1, align 8
  %22 = getelementptr inbounds nuw i8, ptr %21, i64 72
  %23 = load i32, ptr %22, align 8
  %.not = icmp eq i32 %2, %23
  br i1 %.not, label %26, label %24

24:                                               ; preds = %16
  %25 = tail call ptr @table_open(i32 noundef %2, i32 noundef 3) #9
  %.pre = load ptr, ptr %7, align 8
  br label %26

26:                                               ; preds = %16, %24
  %27 = phi ptr [ %.pre, %24 ], [ %17, %16 ]
  %.0 = phi ptr [ %25, %24 ], [ %21, %16 ]
  %28 = tail call ptr @PartitionDirectoryLookup(ptr noundef %27, ptr noundef %.0) #9
  %29 = load i32, ptr %28, align 8
  %30 = sext i32 %29 to i64
  %31 = shl nsw i64 %30, 2
  %32 = add nsw i64 %31, 48
  %33 = tail call ptr @palloc(i64 noundef %32) #9
  store ptr %.0, ptr %33, align 8
  %34 = tail call ptr @RelationGetPartitionKey(ptr noundef %.0) #9
  %35 = getelementptr inbounds nuw i8, ptr %33, i64 8
  store ptr %34, ptr %35, align 8
  %36 = getelementptr inbounds nuw i8, ptr %33, i64 16
  store ptr null, ptr %36, align 8
  %37 = getelementptr inbounds nuw i8, ptr %33, i64 24
  store ptr %28, ptr %37, align 8
  %.not66 = icmp eq ptr %3, null
  br i1 %.not66, label %51, label %38

38:                                               ; preds = %26
  %39 = getelementptr inbounds nuw i8, ptr %.0, i64 64
  %40 = load ptr, ptr %39, align 8
  %41 = load ptr, ptr %3, align 8
  %42 = getelementptr inbounds nuw i8, ptr %41, i64 64
  %43 = load ptr, ptr %42, align 8
  %44 = tail call ptr @build_attrmap_by_name_if_req(ptr noundef %43, ptr noundef %40, i1 noundef zeroext false) #9
  %45 = getelementptr inbounds nuw i8, ptr %33, i64 40
  store ptr %44, ptr %45, align 8
  %.not67 = icmp eq ptr %44, null
  br i1 %.not67, label %48, label %46

46:                                               ; preds = %38
  %47 = tail call ptr @MakeSingleTupleTableSlot(ptr noundef %40, ptr noundef nonnull @TTSOpsVirtual) #9
  br label %48

48:                                               ; preds = %38, %46
  %49 = phi ptr [ %47, %46 ], [ null, %38 ]
  %50 = getelementptr inbounds nuw i8, ptr %33, i64 32
  store ptr %49, ptr %50, align 8
  br label %53

51:                                               ; preds = %26
  %52 = getelementptr inbounds nuw i8, ptr %33, i64 32
  tail call void @llvm.memset.p0.i64(ptr noundef nonnull align 8 dereferenceable(16) %52, i8 0, i64 16, i1 false)
  br label %53

53:                                               ; preds = %51, %48
  %54 = getelementptr inbounds nuw i8, ptr %33, i64 48
  %55 = load i32, ptr %28, align 8
  %56 = sext i32 %55 to i64
  %57 = shl nsw i64 %56, 2
  tail call void @llvm.memset.p0.i64(ptr nonnull align 8 %54, i8 -1, i64 %57, i1 false)
  %58 = getelementptr inbounds nuw i8, ptr %1, i64 24
  %59 = load i32, ptr %58, align 8
  %60 = add i32 %59, 1
  store i32 %60, ptr %58, align 8
  %61 = getelementptr inbounds nuw i8, ptr %1, i64 28
  %62 = load i32, ptr %61, align 4
  %.not68 = icmp slt i32 %60, %62
  br i1 %.not68, label %84, label %63

63:                                               ; preds = %53
  %64 = icmp eq i32 %62, 0
  %65 = getelementptr inbounds nuw i8, ptr %1, i64 8
  %66 = getelementptr inbounds nuw i8, ptr %1, i64 16
  br i1 %64, label %67, label %73

67:                                               ; preds = %63
  store i32 4, ptr %61, align 4
  %68 = tail call ptr @palloc(i64 noundef 32) #9
  store ptr %68, ptr %65, align 8
  %69 = load i32, ptr %61, align 4
  %70 = sext i32 %69 to i64
  %71 = shl nsw i64 %70, 3
  %72 = tail call ptr @palloc(i64 noundef %71) #9
  br label %.sink.split

73:                                               ; preds = %63
  %74 = shl i32 %62, 1
  store i32 %74, ptr %61, align 4
  %75 = load ptr, ptr %65, align 8
  %76 = sext i32 %74 to i64
  %77 = shl nsw i64 %76, 3
  %78 = tail call ptr @repalloc(ptr noundef %75, i64 noundef %77) #9
  store ptr %78, ptr %65, align 8
  %79 = load ptr, ptr %66, align 8
  %80 = load i32, ptr %61, align 4
  %81 = sext i32 %80 to i64
  %82 = shl nsw i64 %81, 3
  %83 = tail call ptr @repalloc(ptr noundef %79, i64 noundef %82) #9
  br label %.sink.split

.sink.split:                                      ; preds = %73, %67
  %.sink = phi ptr [ %72, %67 ], [ %83, %73 ]
  store ptr %.sink, ptr %66, align 8
  br label %84

84:                                               ; preds = %.sink.split, %53
  %85 = getelementptr inbounds nuw i8, ptr %1, i64 8
  %86 = load ptr, ptr %85, align 8
  %87 = sext i32 %59 to i64
  %88 = getelementptr inbounds ptr, ptr %86, i64 %87
  store ptr %33, ptr %88, align 8
  br i1 %.not66, label %.thread, label %92

.thread:                                          ; preds = %84
  %89 = getelementptr inbounds nuw i8, ptr %1, i64 16
  %90 = load ptr, ptr %89, align 8
  %91 = getelementptr inbounds ptr, ptr %90, i64 %87
  store ptr null, ptr %91, align 8
  br label %100

92:                                               ; preds = %84
  %93 = tail call noundef ptr @palloc0(i64 noundef 392) #9
  store i32 387, ptr %93, align 4
  tail call void @InitResultRelInfo(ptr noundef nonnull %93, ptr noundef %.0, i32 noundef 0, ptr noundef %5, i32 noundef 0) #9
  %94 = getelementptr inbounds nuw i8, ptr %1, i64 16
  %95 = load ptr, ptr %94, align 8
  %96 = getelementptr inbounds ptr, ptr %95, i64 %87
  store ptr %93, ptr %96, align 8
  %97 = getelementptr inbounds nuw i8, ptr %3, i64 48
  %98 = zext nneg i32 %4 to i64
  %99 = getelementptr inbounds nuw [0 x i32], ptr %97, i64 0, i64 %98
  store i32 %59, ptr %99, align 4
  br label %100

100:                                              ; preds = %.thread, %92
  store ptr %20, ptr @CurrentMemoryContext, align 8
  ret ptr %33
}